; Function Attrs: nounwind uwtable
define dso_local i32 @membersOfGeoHashBox(ptr nocapture noundef readonly %zobj, i64 %hash.coerce0, i8 %hash.coerce1, ptr nocapture noundef %ga, ptr nocapture noundef readonly %shape, i64 noundef %limit) local_unnamed_addr #0 {
entry:
  %call.i = tail call i64 @geohashAlign52Bits(i64 %hash.coerce0, i8 %hash.coerce1) #14
  %inc.i = add i64 %hash.coerce0, 1
  %call1.i = tail call i64 @geohashAlign52Bits(i64 %inc.i, i8 %hash.coerce1) #14
  %conv = uitofp i64 %call.i to double
  %conv1 = uitofp i64 %call1.i to double
  %call = tail call i32 @geoGetPointsInRange(ptr noundef %zobj, double noundef %conv, double noundef %conv1, ptr noundef %shape, ptr noundef %ga, i64 noundef %limit)
  ret i32 %call
}